target datalayout = "e-m:e-p270:32:32-p271:32:32-p272:64:64-i64:64-i128:128-f80:128-n8:16:32:64-S128"
target triple = "x86_64-pc-linux-gnu"

; Function Attrs: alwaysinline nounwind willreturn memory(none) uwtable
define internal zeroext i16 @av_bswap16(i16 noundef zeroext %0) #4 {
  %2 = alloca i16, align 2
  store i16 %0, ptr %2, align 2, !tbaa !44
  %3 = load i16, ptr %2, align 2, !tbaa !44
  %4 = zext i16 %3 to i32
  %5 = ashr i32 %4, 8
  %6 = load i16, ptr %2, align 2, !tbaa !44
  %7 = zext i16 %6 to i32
  %8 = shl i32 %7, 8
  %9 = or i32 %5, %8
  %10 = trunc i32 %9 to i16
  store i16 %10, ptr %2, align 2, !tbaa !44
  %11 = load i16, ptr %2, align 2, !tbaa !44
  ret i16 %11
}

; Function Attrs: alwaysinline nounwind uwtable
define internal void @rgb16_32ToUV_c_template(ptr noundef %0, ptr noundef %1, ptr noundef %2, i32 noundef %3, i32 noundef %4, i32 noundef %5, i32 noundef %6, i32 noundef %7, i32 noundef %8, i32 noundef %9, i32 noundef %10, i32 noundef %11, i32 noundef %12, i32 noundef %13, i32 noundef %14, i32 noundef %15, ptr noundef %16, i32 noundef %17) #3 {
  %19 = alloca ptr, align 8
  %20 = alloca ptr, align 8
  %21 = alloca ptr, align 8
  %22 = alloca i32, align 4
  %23 = alloca i32, align 4
  %24 = alloca i32, align 4
  %25 = alloca i32, align 4
  %26 = alloca i32, align 4
  %27 = alloca i32, align 4
  %28 = alloca i32, align 4
  %29 = alloca i32, align 4
  %30 = alloca i32, align 4
  %31 = alloca i32, align 4
  %32 = alloca i32, align 4
  %33 = alloca i32, align 4
  %34 = alloca i32, align 4
  %35 = alloca ptr, align 8
  %36 = alloca i32, align 4
  %37 = alloca i32, align 4
  %38 = alloca i32, align 4
  %39 = alloca i32, align 4
  %40 = alloca i32, align 4
  %41 = alloca i32, align 4
  %42 = alloca i32, align 4
  %43 = alloca i32, align 4
  %44 = alloca i32, align 4
  %45 = alloca i32, align 4
  %46 = alloca i32, align 4
  %47 = alloca i32, align 4
  %48 = alloca i32, align 4
  store ptr %0, ptr %19, align 8, !tbaa !43
  store ptr %1, ptr %20, align 8, !tbaa !43
  store ptr %2, ptr %21, align 8, !tbaa !34
  store i32 %3, ptr %22, align 4, !tbaa !30
  store i32 %4, ptr %23, align 4, !tbaa !30
  store i32 %5, ptr %24, align 4, !tbaa !30
  store i32 %6, ptr %25, align 4, !tbaa !30
  store i32 %7, ptr %26, align 4, !tbaa !30
  store i32 %8, ptr %27, align 4, !tbaa !30
  store i32 %9, ptr %28, align 4, !tbaa !30
  store i32 %10, ptr %29, align 4, !tbaa !30
  store i32 %11, ptr %30, align 4, !tbaa !30
  store i32 %12, ptr %31, align 4, !tbaa !30
  store i32 %13, ptr %32, align 4, !tbaa !30
  store i32 %14, ptr %33, align 4, !tbaa !30
  store i32 %15, ptr %34, align 4, !tbaa !30
  store ptr %16, ptr %35, align 8, !tbaa !35
  store i32 %17, ptr %36, align 4, !tbaa !30
  call void @llvm.lifetime.start.p0(i64 4, ptr %37) #9
  %49 = load ptr, ptr %35, align 8, !tbaa !35
  %50 = getelementptr inbounds i32, ptr %49, i64 3
  %51 = load i32, ptr %50, align 4, !tbaa !30
  %52 = load i32, ptr %31, align 4, !tbaa !30
  %53 = shl i32 1, %52
  %54 = mul nsw i32 %51, %53
  store i32 %54, ptr %37, align 4, !tbaa !30
  call void @llvm.lifetime.start.p0(i64 4, ptr %38) #9
  %55 = load ptr, ptr %35, align 8, !tbaa !35
  %56 = getelementptr inbounds i32, ptr %55, i64 4
  %57 = load i32, ptr %56, align 4, !tbaa !30
  %58 = load i32, ptr %32, align 4, !tbaa !30
  %59 = shl i32 1, %58
  %60 = mul nsw i32 %57, %59
  store i32 %60, ptr %38, align 4, !tbaa !30
  call void @llvm.lifetime.start.p0(i64 4, ptr %39) #9
  %61 = load ptr, ptr %35, align 8, !tbaa !35
  %62 = getelementptr inbounds i32, ptr %61, i64 5
  %63 = load i32, ptr %62, align 4, !tbaa !30
  %64 = load i32, ptr %33, align 4, !tbaa !30
  %65 = shl i32 1, %64
  %66 = mul nsw i32 %63, %65
  store i32 %66, ptr %39, align 4, !tbaa !30
  call void @llvm.lifetime.start.p0(i64 4, ptr %40) #9
  %67 = load ptr, ptr %35, align 8, !tbaa !35
  %68 = getelementptr inbounds i32, ptr %67, i64 6
  %69 = load i32, ptr %68, align 4, !tbaa !30
  %70 = load i32, ptr %31, align 4, !tbaa !30
  %71 = shl i32 1, %70
  %72 = mul nsw i32 %69, %71
  store i32 %72, ptr %40, align 4, !tbaa !30
  call void @llvm.lifetime.start.p0(i64 4, ptr %41) #9
  %73 = load ptr, ptr %35, align 8, !tbaa !35
  %74 = getelementptr inbounds i32, ptr %73, i64 7
  %75 = load i32, ptr %74, align 4, !tbaa !30
  %76 = load i32, ptr %32, align 4, !tbaa !30
  %77 = shl i32 1, %76
  %78 = mul nsw i32 %75, %77
  store i32 %78, ptr %41, align 4, !tbaa !30
  call void @llvm.lifetime.start.p0(i64 4, ptr %42) #9
  %79 = load ptr, ptr %35, align 8, !tbaa !35
  %80 = getelementptr inbounds i32, ptr %79, i64 8
  %81 = load i32, ptr %80, align 4, !tbaa !30
  %82 = load i32, ptr %33, align 4, !tbaa !30
  %83 = shl i32 1, %82
  %84 = mul nsw i32 %81, %83
  store i32 %84, ptr %42, align 4, !tbaa !30
  call void @llvm.lifetime.start.p0(i64 4, ptr %43) #9
  %85 = load i32, ptr %34, align 4, !tbaa !30
  %86 = sub nsw i32 %85, 1
  %87 = shl i32 256, %86
  %88 = load i32, ptr %34, align 4, !tbaa !30
  %89 = sub nsw i32 %88, 7
  %90 = shl i32 1, %89
  %91 = add i32 %87, %90
  store i32 %91, ptr %43, align 4, !tbaa !30
  call void @llvm.lifetime.start.p0(i64 4, ptr %44) #9
  store i32 0, ptr %44, align 4, !tbaa !30
  br label %92

92:                                               ; preds = %213, %18
  %93 = load i32, ptr %44, align 4, !tbaa !30
  %94 = load i32, ptr %22, align 4, !tbaa !30
  %95 = icmp slt i32 %93, %94
  br i1 %95, label %96, label %216

96:                                               ; preds = %92
  call void @llvm.lifetime.start.p0(i64 4, ptr %45) #9
  %97 = load i32, ptr %23, align 4, !tbaa !30
  %98 = icmp eq i32 %97, 26
  br i1 %98, label %108, label %99

99:                                               ; preds = %96
  %100 = load i32, ptr %23, align 4, !tbaa !30
  %101 = icmp eq i32 %100, 28
  br i1 %101, label %108, label %102

102:                                              ; preds = %99
  %103 = load i32, ptr %23, align 4, !tbaa !30
  %104 = icmp eq i32 %103, 25
  br i1 %104, label %108, label %105

105:                                              ; preds = %102
  %106 = load i32, ptr %23, align 4, !tbaa !30
  %107 = icmp eq i32 %106, 27
  br i1 %107, label %108, label %115

108:                                              ; preds = %105, %102, %99, %96
  %109 = load ptr, ptr %21, align 8, !tbaa !34
  %110 = load i32, ptr %44, align 4, !tbaa !30
  %111 = mul nsw i32 %110, 4
  %112 = sext i32 %111 to i64
  %113 = getelementptr inbounds i8, ptr %109, i64 %112
  %114 = load i32, ptr %113, align 4, !tbaa !36
  br label %152

115:                                              ; preds = %105
  %116 = load i32, ptr %23, align 4, !tbaa !30
  %117 = icmp eq i32 %116, 193
  br i1 %117, label %121, label %118

118:                                              ; preds = %115
  %119 = load i32, ptr %23, align 4, !tbaa !30
  %120 = icmp eq i32 %119, 195
  br i1 %120, label %121, label %128

121:                                              ; preds = %118, %115
  %122 = load ptr, ptr %21, align 8, !tbaa !34
  %123 = load i32, ptr %44, align 4, !tbaa !30
  %124 = mul nsw i32 %123, 4
  %125 = sext i32 %124 to i64
  %126 = getelementptr inbounds i8, ptr %122, i64 %125
  %127 = load i32, ptr %126, align 1, !tbaa !36
  br label %150

128:                                              ; preds = %118
  %129 = load i32, ptr %36, align 4, !tbaa !30
  %130 = icmp ne i32 %129, 0
  br i1 %130, label %131, label %140

131:                                              ; preds = %128
  %132 = load ptr, ptr %21, align 8, !tbaa !34
  %133 = load i32, ptr %44, align 4, !tbaa !30
  %134 = mul nsw i32 %133, 2
  %135 = sext i32 %134 to i64
  %136 = getelementptr inbounds i8, ptr %132, i64 %135
  %137 = load i16, ptr %136, align 1, !tbaa !36
  %138 = call zeroext i16 @av_bswap16(i16 noundef zeroext %137) #10
  %139 = zext i16 %138 to i32
  br label %148

140:                                              ; preds = %128
  %141 = load ptr, ptr %21, align 8, !tbaa !34
  %142 = load i32, ptr %44, align 4, !tbaa !30
  %143 = mul nsw i32 %142, 2
  %144 = sext i32 %143 to i64
  %145 = getelementptr inbounds i8, ptr %141, i64 %144
  %146 = load i16, ptr %145, align 1, !tbaa !36
  %147 = zext i16 %146 to i32
  br label %148

148:                                              ; preds = %140, %131
  %149 = phi i32 [ %139, %131 ], [ %147, %140 ]
  br label %150

150:                                              ; preds = %148, %121
  %151 = phi i32 [ %127, %121 ], [ %149, %148 ]
  br label %152

152:                                              ; preds = %150, %108
  %153 = phi i32 [ %114, %108 ], [ %151, %150 ]
  %154 = load i32, ptr %27, align 4, !tbaa !30
  %155 = lshr i32 %153, %154
  store i32 %155, ptr %45, align 4, !tbaa !30
  call void @llvm.lifetime.start.p0(i64 4, ptr %46) #9
  %156 = load i32, ptr %45, align 4, !tbaa !30
  %157 = load i32, ptr %30, align 4, !tbaa !30
  %158 = and i32 %156, %157
  %159 = load i32, ptr %26, align 4, !tbaa !30
  %160 = ashr i32 %158, %159
  store i32 %160, ptr %46, align 4, !tbaa !30
  call void @llvm.lifetime.start.p0(i64 4, ptr %47) #9
  %161 = load i32, ptr %45, align 4, !tbaa !30
  %162 = load i32, ptr %29, align 4, !tbaa !30
  %163 = and i32 %161, %162
  %164 = load i32, ptr %25, align 4, !tbaa !30
  %165 = ashr i32 %163, %164
  store i32 %165, ptr %47, align 4, !tbaa !30
  call void @llvm.lifetime.start.p0(i64 4, ptr %48) #9
  %166 = load i32, ptr %45, align 4, !tbaa !30
  %167 = load i32, ptr %28, align 4, !tbaa !30
  %168 = and i32 %166, %167
  %169 = load i32, ptr %24, align 4, !tbaa !30
  %170 = ashr i32 %168, %169
  store i32 %170, ptr %48, align 4, !tbaa !30
  %171 = load i32, ptr %37, align 4, !tbaa !30
  %172 = load i32, ptr %48, align 4, !tbaa !30
  %173 = mul nsw i32 %171, %172
  %174 = load i32, ptr %38, align 4, !tbaa !30
  %175 = load i32, ptr %47, align 4, !tbaa !30
  %176 = mul nsw i32 %174, %175
  %177 = add nsw i32 %173, %176
  %178 = load i32, ptr %39, align 4, !tbaa !30
  %179 = load i32, ptr %46, align 4, !tbaa !30
  %180 = mul nsw i32 %178, %179
  %181 = add nsw i32 %177, %180
  %182 = load i32, ptr %43, align 4, !tbaa !30
  %183 = add i32 %181, %182
  %184 = load i32, ptr %34, align 4, !tbaa !30
  %185 = sub nsw i32 %184, 6
  %186 = lshr i32 %183, %185
  %187 = trunc i32 %186 to i16
  %188 = load ptr, ptr %19, align 8, !tbaa !43
  %189 = load i32, ptr %44, align 4, !tbaa !30
  %190 = sext i32 %189 to i64
  %191 = getelementptr inbounds i16, ptr %188, i64 %190
  store i16 %187, ptr %191, align 2, !tbaa !44
  %192 = load i32, ptr %40, align 4, !tbaa !30
  %193 = load i32, ptr %48, align 4, !tbaa !30
  %194 = mul nsw i32 %192, %193
  %195 = load i32, ptr %41, align 4, !tbaa !30
  %196 = load i32, ptr %47, align 4, !tbaa !30
  %197 = mul nsw i32 %195, %196
  %198 = add nsw i32 %194, %197
  %199 = load i32, ptr %42, align 4, !tbaa !30
  %200 = load i32, ptr %46, align 4, !tbaa !30
  %201 = mul nsw i32 %199, %200
  %202 = add nsw i32 %198, %201
  %203 = load i32, ptr %43, align 4, !tbaa !30
  %204 = add i32 %202, %203
  %205 = load i32, ptr %34, align 4, !tbaa !30
  %206 = sub nsw i32 %205, 6
  %207 = lshr i32 %204, %206
  %208 = trunc i32 %207 to i16
  %209 = load ptr, ptr %20, align 8, !tbaa !43
  %210 = load i32, ptr %44, align 4, !tbaa !30
  %211 = sext i32 %210 to i64
  %212 = getelementptr inbounds i16, ptr %209, i64 %211
  store i16 %208, ptr %212, align 2, !tbaa !44
  call void @llvm.lifetime.end.p0(i64 4, ptr %48) #9
  call void @llvm.lifetime.end.p0(i64 4, ptr %47) #9
  call void @llvm.lifetime.end.p0(i64 4, ptr %46) #9
  call void @llvm.lifetime.end.p0(i64 4, ptr %45) #9
  br label %213

213:                                              ; preds = %152
  %214 = load i32, ptr %44, align 4, !tbaa !30
  %215 = add nsw i32 %214, 1
  store i32 %215, ptr %44, align 4, !tbaa !30
  br label %92, !llvm.loop !149

216:                                              ; preds = %92
  call void @llvm.lifetime.end.p0(i64 4, ptr %44) #9
  call void @llvm.lifetime.end.p0(i64 4, ptr %43) #9
  call void @llvm.lifetime.end.p0(i64 4, ptr %42) #9
  call void @llvm.lifetime.end.p0(i64 4, ptr %41) #9
  call void @llvm.lifetime.end.p0(i64 4, ptr %40) #9
  call void @llvm.lifetime.end.p0(i64 4, ptr %39) #9
  call void @llvm.lifetime.end.p0(i64 4, ptr %38) #9
  call void @llvm.lifetime.end.p0(i64 4, ptr %37) #9
  ret void
}

; Function Attrs: nounwind uwtable
define internal void @rgb30leToUV_c(ptr noundef %0, ptr noundef %1, ptr noundef %2, ptr noundef %3, ptr noundef %4, i32 noundef %5, ptr noundef %6, ptr noundef %7) #2 {
  %9 = alloca ptr, align 8
  %10 = alloca ptr, align 8
  %11 = alloca ptr, align 8
  %12 = alloca ptr, align 8
  %13 = alloca ptr, align 8
  %14 = alloca i32, align 4
  %15 = alloca ptr, align 8
  %16 = alloca ptr, align 8
  store ptr %0, ptr %9, align 8, !tbaa !34
  store ptr %1, ptr %10, align 8, !tbaa !34
  store ptr %2, ptr %11, align 8, !tbaa !34
  store ptr %3, ptr %12, align 8, !tbaa !34
  store ptr %4, ptr %13, align 8, !tbaa !34
  store i32 %5, ptr %14, align 4, !tbaa !30
  store ptr %6, ptr %15, align 8, !tbaa !35
  store ptr %7, ptr %16, align 8, !tbaa !31
  %17 = load ptr, ptr %9, align 8, !tbaa !34
  %18 = load ptr, ptr %10, align 8, !tbaa !34
  %19 = load ptr, ptr %12, align 8, !tbaa !34
  %20 = load i32, ptr %14, align 4, !tbaa !30
  %21 = load ptr, ptr %15, align 8, !tbaa !35
  call void @rgb16_32ToUV_c_template(ptr noundef %17, ptr noundef %18, ptr noundef %19, i32 noundef %20, i32 noundef 193, i32 noundef 16, i32 noundef 6, i32 noundef 0, i32 noundef 0, i32 noundef 1072693248, i32 noundef 1047552, i32 noundef 1023, i32 noundef 0, i32 noundef 0, i32 noundef 4, i32 noundef 21, ptr noundef %21, i32 noundef 0)
  ret void
}